target datalayout = "e-m:e-p270:32:32-p271:32:32-p272:64:64-i64:64-i128:128-f80:128-n8:16:32:64-S128"
target triple = "x86_64-pc-linux-gnu"

%struct.PatternInfoArray = type { ptr, i64 }
%struct.PQExpBufferData = type { ptr, i64, i64 }
%struct.PatternInfo = type { ptr, ptr, ptr, ptr, i8, i8, i8 }

@.str.154 = private unnamed_addr constant [52 x i8] c"improper qualified name (too many dotted names): %s\00", align 1

; Function Attrs: nounwind uwtable
define internal ptr @extend_pattern_info_array(ptr noundef %0) #0 {
  %2 = alloca ptr, align 8
  %3 = alloca ptr, align 8
  store ptr %0, ptr %2, align 8
  call void @llvm.lifetime.start.p0(i64 8, ptr %3) #10
  %4 = load ptr, ptr %2, align 8
  %5 = getelementptr inbounds nuw %struct.PatternInfoArray, ptr %4, i32 0, i32 1
  %6 = load i64, ptr %5, align 8
  %7 = add i64 %6, 1
  store i64 %7, ptr %5, align 8
  %8 = load ptr, ptr %2, align 8
  %9 = getelementptr inbounds nuw %struct.PatternInfoArray, ptr %8, i32 0, i32 0
  %10 = load ptr, ptr %9, align 8
  %11 = load ptr, ptr %2, align 8
  %12 = getelementptr inbounds nuw %struct.PatternInfoArray, ptr %11, i32 0, i32 1
  %13 = load i64, ptr %12, align 8
  %14 = mul i64 %13, 40
  %15 = call ptr @pg_realloc(ptr noundef %10, i64 noundef %14)
  %16 = load ptr, ptr %2, align 8
  %17 = getelementptr inbounds nuw %struct.PatternInfoArray, ptr %16, i32 0, i32 0
  store ptr %15, ptr %17, align 8
  %18 = load ptr, ptr %2, align 8
  %19 = getelementptr inbounds nuw %struct.PatternInfoArray, ptr %18, i32 0, i32 0
  %20 = load ptr, ptr %19, align 8
  %21 = load ptr, ptr %2, align 8
  %22 = getelementptr inbounds nuw %struct.PatternInfoArray, ptr %21, i32 0, i32 1
  %23 = load i64, ptr %22, align 8
  %24 = sub i64 %23, 1
  %25 = getelementptr inbounds nuw %struct.PatternInfo, ptr %20, i64 %24
  store ptr %25, ptr %3, align 8
  %26 = load ptr, ptr %3, align 8
  call void @llvm.memset.p0.i64(ptr align 8 %26, i8 0, i64 40, i1 false)
  %27 = load ptr, ptr %3, align 8
  call void @llvm.lifetime.end.p0(i64 8, ptr %3) #10
  ret ptr %27
}

; Function Attrs: nounwind uwtable
define internal void @append_database_pattern(ptr noundef %0, ptr noundef %1, i32 noundef %2) #0 {
  %4 = alloca ptr, align 8
  %5 = alloca ptr, align 8
  %6 = alloca i32, align 4
  %7 = alloca %struct.PQExpBufferData, align 8
  %8 = alloca i32, align 4
  %9 = alloca ptr, align 8
  store ptr %0, ptr %4, align 8
  store ptr %1, ptr %5, align 8
  store i32 %2, ptr %6, align 4
  call void @llvm.lifetime.start.p0(i64 24, ptr %7) #10
  call void @llvm.lifetime.start.p0(i64 4, ptr %8) #10
  call void @llvm.lifetime.start.p0(i64 8, ptr %9) #10
  %10 = load ptr, ptr %4, align 8
  %11 = call ptr @extend_pattern_info_array(ptr noundef %10)
  store ptr %11, ptr %9, align 8
  call void @initPQExpBuffer(ptr noundef %7)
  %12 = load i32, ptr %6, align 4
  %13 = load ptr, ptr %5, align 8
  call void @patternToSQLRegex(i32 noundef %12, ptr noundef null, ptr noundef null, ptr noundef %7, ptr noundef %13, i1 noundef zeroext false, i1 noundef zeroext false, ptr noundef %8)
  %14 = load i32, ptr %8, align 4
  %15 = icmp sgt i32 %14, 0
  br i1 %15, label %16, label %18

16:                                               ; preds = %3
  %17 = load ptr, ptr %5, align 8
  call void (i32, i32, ptr, ...) @pg_log_generic(i32 noundef 4, i32 noundef 0, ptr noundef @.str.154, ptr noundef %17)
  call void @exit(i32 noundef 2) #11
  unreachable

18:                                               ; preds = %3
  %19 = load ptr, ptr %5, align 8
  %20 = load ptr, ptr %9, align 8
  %21 = getelementptr inbounds nuw %struct.PatternInfo, ptr %20, i32 0, i32 0
  store ptr %19, ptr %21, align 8
  %22 = getelementptr inbounds nuw %struct.PQExpBufferData, ptr %7, i32 0, i32 0
  %23 = load ptr, ptr %22, align 8
  %24 = call ptr @pstrdup(ptr noundef %23)
  %25 = load ptr, ptr %9, align 8
  %26 = getelementptr inbounds nuw %struct.PatternInfo, ptr %25, i32 0, i32 1
  store ptr %24, ptr %26, align 8
  call void @termPQExpBuffer(ptr noundef %7)
  call void @llvm.lifetime.end.p0(i64 8, ptr %9) #10
  call void @llvm.lifetime.end.p0(i64 4, ptr %8) #10
  call void @llvm.lifetime.end.p0(i64 24, ptr %7) #10
  ret void
}