; Function Attrs: nounwind uwtable
define internal fastcc void @append_database_pattern(ptr noundef captures(none) %0, ptr noundef %1, i32 noundef %2) unnamed_addr #0 {
  %4 = alloca %struct.PQExpBufferData, align 8
  %5 = alloca i32, align 4
  call void @llvm.lifetime.start.p0(i64 24, ptr nonnull %4) #11
  call void @llvm.lifetime.start.p0(i64 4, ptr nonnull %5) #11
  %6 = getelementptr inbounds nuw i8, ptr %0, i64 8
  %7 = load i64, ptr %6, align 8
  %8 = add i64 %7, 1
  store i64 %8, ptr %6, align 8
  %9 = load ptr, ptr %0, align 8
  %10 = mul i64 %8, 40
  %11 = tail call ptr @pg_realloc(ptr noundef %9, i64 noundef %10) #11
  store ptr %11, ptr %0, align 8
  %12 = load i64, ptr %6, align 8
  %13 = getelementptr %struct.PatternInfo, ptr %11, i64 %12
  %14 = getelementptr i8, ptr %13, i64 -40
  tail call void @llvm.memset.p0.i64(ptr noundef nonnull align 8 dereferenceable(40) %14, i8 0, i64 40, i1 false)
  call void @initPQExpBuffer(ptr noundef nonnull %4) #11
  call void @patternToSQLRegex(i32 noundef %2, ptr noundef null, ptr noundef null, ptr noundef nonnull %4, ptr noundef %1, i1 noundef zeroext false, i1 noundef zeroext false, ptr noundef nonnull %5) #11
  %15 = load i32, ptr %5, align 4
  %16 = icmp sgt i32 %15, 0
  br i1 %16, label %17, label %18

17:                                               ; preds = %3
  call void (i32, i32, ptr, ...) @pg_log_generic(i32 noundef 4, i32 noundef 0, ptr noundef nonnull @.str.154, ptr noundef %1) #11
  call void @exit(i32 noundef 2) #12
  unreachable

18:                                               ; preds = %3
  store ptr %1, ptr %14, align 8
  %19 = load ptr, ptr %4, align 8
  %20 = call ptr @pstrdup(ptr noundef %19) #11
  %21 = getelementptr i8, ptr %13, i64 -32
  store ptr %20, ptr %21, align 8
  call void @termPQExpBuffer(ptr noundef nonnull %4) #11
  call void @llvm.lifetime.end.p0(i64 4, ptr nonnull %5) #11
  call void @llvm.lifetime.end.p0(i64 24, ptr nonnull %4) #11
  ret void
}